(dp0
Vengine
p1
S'pdflatex'
p2
sVpackages
p3
c__builtin__
set
p4
((lp5
Vhyperref
p6
aVtocloft
p7
aVamsmath
p8
aVamsfonts
p9
aVgraphicx
p10
aVamssymb
p11
atp12
Rp13
sVfiles_with_guttermarks
p14
g4
((lp15
S'Abstract Algebra Note.tex'
p16
atp17
Rp18
sVsynctex
p19
I01
s.