(dp0
Vengine
p1
S'pdflatex'
p2
sVpackages
p3
c__builtin__
set
p4
((lp5
Vhyperref
p6
aVtocloft
p7
aVfancyhdr
p8
aVamsmath
p9
aVfloat
p10
aVamsfonts
p11
aVgraphicx
p12
aVamssymb
p13
atp14
Rp15
sVfiles_with_guttermarks
p16
g4
((lp17
S'Abstract Algebra.tex'
p18
atp19
Rp20
sVsynctex
p21
I01
s.